target datalayout = "e-m:e-p270:32:32-p271:32:32-p272:64:64-i64:64-i128:128-f80:128-n8:16:32:64-S128"
target triple = "x86_64-pc-linux-gnu"

%union.anon = type { i32 }
%struct.cdf_header_t = type { i64, [2 x i64], i16, i16, i16, i16, i16, [10 x i8], i32, i32, [4 x i8], i32, i32, i32, i32, i32, [109 x i32] }
%struct.cdf_stream_t = type { ptr, i64, i64, i64 }
%struct.cdf_sat_t = type { ptr, i64 }

@cdf_bo = internal global %union.anon zeroinitializer, align 4

; Function Attrs: nounwind uwtable
define internal i32 @_cdf_tole4(i32 noundef %0) #0 {
  %2 = alloca i32, align 4
  %3 = alloca i32, align 4
  %4 = alloca ptr, align 8
  %5 = alloca ptr, align 8
  store i32 %0, ptr %2, align 4, !tbaa !12
  call void @llvm.lifetime.start.p0(i64 4, ptr %3) #13
  call void @llvm.lifetime.start.p0(i64 8, ptr %4) #13
  %6 = ptrtoint ptr %2 to i64
  %7 = inttoptr i64 %6 to ptr
  %8 = ptrtoint ptr %7 to i64
  %9 = inttoptr i64 %8 to ptr
  store ptr %9, ptr %4, align 8, !tbaa !9
  call void @llvm.lifetime.start.p0(i64 8, ptr %5) #13
  %10 = ptrtoint ptr %3 to i64
  %11 = inttoptr i64 %10 to ptr
  %12 = ptrtoint ptr %11 to i64
  %13 = inttoptr i64 %12 to ptr
  store ptr %13, ptr %5, align 8, !tbaa !9
  %14 = load ptr, ptr %4, align 8, !tbaa !9
  %15 = getelementptr inbounds i8, ptr %14, i64 3
  %16 = load i8, ptr %15, align 1, !tbaa !8
  %17 = load ptr, ptr %5, align 8, !tbaa !9
  %18 = getelementptr inbounds i8, ptr %17, i64 0
  store i8 %16, ptr %18, align 1, !tbaa !8
  %19 = load ptr, ptr %4, align 8, !tbaa !9
  %20 = getelementptr inbounds i8, ptr %19, i64 2
  %21 = load i8, ptr %20, align 1, !tbaa !8
  %22 = load ptr, ptr %5, align 8, !tbaa !9
  %23 = getelementptr inbounds i8, ptr %22, i64 1
  store i8 %21, ptr %23, align 1, !tbaa !8
  %24 = load ptr, ptr %4, align 8, !tbaa !9
  %25 = getelementptr inbounds i8, ptr %24, i64 1
  %26 = load i8, ptr %25, align 1, !tbaa !8
  %27 = load ptr, ptr %5, align 8, !tbaa !9
  %28 = getelementptr inbounds i8, ptr %27, i64 2
  store i8 %26, ptr %28, align 1, !tbaa !8
  %29 = load ptr, ptr %4, align 8, !tbaa !9
  %30 = getelementptr inbounds i8, ptr %29, i64 0
  %31 = load i8, ptr %30, align 1, !tbaa !8
  %32 = load ptr, ptr %5, align 8, !tbaa !9
  %33 = getelementptr inbounds i8, ptr %32, i64 3
  store i8 %31, ptr %33, align 1, !tbaa !8
  %34 = load i32, ptr %3, align 4, !tbaa !12
  call void @llvm.lifetime.end.p0(i64 8, ptr %5) #13
  call void @llvm.lifetime.end.p0(i64 8, ptr %4) #13
  call void @llvm.lifetime.end.p0(i64 4, ptr %3) #13
  ret i32 %34
}

; Function Attrs: nounwind uwtable
define hidden i64 @cdf_read_short_sector(ptr noundef %0, ptr noundef %1, i64 noundef %2, i64 noundef %3, ptr noundef %4, i32 noundef %5) #0 {
  %7 = alloca i64, align 8
  %8 = alloca ptr, align 8
  %9 = alloca ptr, align 8
  %10 = alloca i64, align 8
  %11 = alloca i64, align 8
  %12 = alloca ptr, align 8
  %13 = alloca i32, align 4
  %14 = alloca i64, align 8
  %15 = alloca i64, align 8
  %16 = alloca i32, align 4
  store ptr %0, ptr %8, align 8, !tbaa !16
  store ptr %1, ptr %9, align 8, !tbaa !16
  store i64 %2, ptr %10, align 8, !tbaa !14
  store i64 %3, ptr %11, align 8, !tbaa !14
  store ptr %4, ptr %12, align 8, !tbaa !16
  store i32 %5, ptr %13, align 4, !tbaa !12
  call void @llvm.lifetime.start.p0(i64 8, ptr %14) #13
  %17 = load ptr, ptr %12, align 8, !tbaa !16
  %18 = getelementptr inbounds nuw %struct.cdf_header_t, ptr %17, i32 0, i32 6
  %19 = load i16, ptr %18, align 8, !tbaa !23
  %20 = zext i16 %19 to i32
  %21 = shl i32 1, %20
  %22 = sext i32 %21 to i64
  store i64 %22, ptr %14, align 8, !tbaa !14
  call void @llvm.lifetime.start.p0(i64 8, ptr %15) #13
  %23 = load i64, ptr %14, align 8, !tbaa !14
  %24 = udiv i64 -1, %23
  %25 = load i32, ptr %13, align 4, !tbaa !12
  %26 = sext i32 %25 to i64
  %27 = icmp ult i64 %24, %26
  br i1 %27, label %28, label %29

28:                                               ; preds = %6
  store i64 -1, ptr %7, align 8
  store i32 1, ptr %16, align 4
  br label %71

29:                                               ; preds = %6
  %30 = load i32, ptr %13, align 4, !tbaa !12
  %31 = sext i32 %30 to i64
  %32 = load ptr, ptr %12, align 8, !tbaa !16
  %33 = getelementptr inbounds nuw %struct.cdf_header_t, ptr %32, i32 0, i32 6
  %34 = load i16, ptr %33, align 8, !tbaa !23
  %35 = zext i16 %34 to i32
  %36 = shl i32 1, %35
  %37 = sext i32 %36 to i64
  %38 = mul i64 %31, %37
  store i64 %38, ptr %15, align 8, !tbaa !14
  %39 = load i64, ptr %15, align 8, !tbaa !14
  %40 = load i64, ptr %11, align 8, !tbaa !14
  %41 = add i64 %39, %40
  %42 = load ptr, ptr %12, align 8, !tbaa !16
  %43 = getelementptr inbounds nuw %struct.cdf_header_t, ptr %42, i32 0, i32 5
  %44 = load i16, ptr %43, align 2, !tbaa !22
  %45 = zext i16 %44 to i32
  %46 = shl i32 1, %45
  %47 = sext i32 %46 to i64
  %48 = load ptr, ptr %8, align 8, !tbaa !16
  %49 = getelementptr inbounds nuw %struct.cdf_stream_t, ptr %48, i32 0, i32 1
  %50 = load i64, ptr %49, align 8, !tbaa !43
  %51 = mul i64 %47, %50
  %52 = icmp ugt i64 %41, %51
  br i1 %52, label %53, label %54

53:                                               ; preds = %29
  br label %69

54:                                               ; preds = %29
  %55 = load ptr, ptr %9, align 8, !tbaa !16
  %56 = ptrtoint ptr %55 to i64
  %57 = inttoptr i64 %56 to ptr
  %58 = load i64, ptr %10, align 8, !tbaa !14
  %59 = getelementptr inbounds nuw i8, ptr %57, i64 %58
  %60 = load ptr, ptr %8, align 8, !tbaa !16
  %61 = getelementptr inbounds nuw %struct.cdf_stream_t, ptr %60, i32 0, i32 0
  %62 = load ptr, ptr %61, align 8, !tbaa !47
  %63 = ptrtoint ptr %62 to i64
  %64 = inttoptr i64 %63 to ptr
  %65 = load i64, ptr %15, align 8, !tbaa !14
  %66 = getelementptr inbounds nuw i8, ptr %64, i64 %65
  %67 = load i64, ptr %11, align 8, !tbaa !14
  call void @llvm.memcpy.p0.p0.i64(ptr align 1 %59, ptr align 1 %66, i64 %67, i1 false)
  %68 = load i64, ptr %11, align 8, !tbaa !14
  store i64 %68, ptr %7, align 8
  store i32 1, ptr %16, align 4
  br label %71

69:                                               ; preds = %53
  %70 = call ptr @__errno_location() #14
  store i32 22, ptr %70, align 4, !tbaa !12
  store i64 -1, ptr %7, align 8
  store i32 1, ptr %16, align 4
  br label %71

71:                                               ; preds = %69, %54, %28
  call void @llvm.lifetime.end.p0(i64 8, ptr %15) #13
  call void @llvm.lifetime.end.p0(i64 8, ptr %14) #13
  %72 = load i64, ptr %7, align 8
  ret i64 %72
}

; Function Attrs: nounwind uwtable
define hidden i32 @cdf_zero_stream(ptr noundef %0) #0 {
  %2 = alloca ptr, align 8
  store ptr %0, ptr %2, align 8, !tbaa !16
  %3 = load ptr, ptr %2, align 8, !tbaa !16
  %4 = getelementptr inbounds nuw %struct.cdf_stream_t, ptr %3, i32 0, i32 1
  store i64 0, ptr %4, align 8, !tbaa !43
  %5 = load ptr, ptr %2, align 8, !tbaa !16
  %6 = getelementptr inbounds nuw %struct.cdf_stream_t, ptr %5, i32 0, i32 2
  store i64 0, ptr %6, align 8, !tbaa !45
  %7 = load ptr, ptr %2, align 8, !tbaa !16
  %8 = getelementptr inbounds nuw %struct.cdf_stream_t, ptr %7, i32 0, i32 3
  store i64 0, ptr %8, align 8, !tbaa !46
  %9 = load ptr, ptr %2, align 8, !tbaa !16
  %10 = getelementptr inbounds nuw %struct.cdf_stream_t, ptr %9, i32 0, i32 0
  %11 = load ptr, ptr %10, align 8, !tbaa !47
  call void @_efree(ptr noundef %11)
  %12 = load ptr, ptr %2, align 8, !tbaa !16
  %13 = getelementptr inbounds nuw %struct.cdf_stream_t, ptr %12, i32 0, i32 0
  store ptr null, ptr %13, align 8, !tbaa !47
  ret i32 -1
}

; Function Attrs: nounwind uwtable
define hidden i64 @cdf_count_chain(ptr noundef %0, i32 noundef %1, i64 noundef %2) #0 {
  %4 = alloca i64, align 8
  %5 = alloca ptr, align 8
  %6 = alloca i32, align 4
  %7 = alloca i64, align 8
  %8 = alloca i64, align 8
  %9 = alloca i64, align 8
  %10 = alloca i32, align 4
  %11 = alloca i32, align 4
  store ptr %0, ptr %5, align 8, !tbaa !16
  store i32 %1, ptr %6, align 4, !tbaa !12
  store i64 %2, ptr %7, align 8, !tbaa !14
  call void @llvm.lifetime.start.p0(i64 8, ptr %8) #13
  call void @llvm.lifetime.start.p0(i64 8, ptr %9) #13
  call void @llvm.lifetime.start.p0(i64 4, ptr %10) #13
  %12 = load ptr, ptr %5, align 8, !tbaa !16
  %13 = getelementptr inbounds nuw %struct.cdf_sat_t, ptr %12, i32 0, i32 1
  %14 = load i64, ptr %13, align 8, !tbaa !52
  %15 = load i64, ptr %7, align 8, !tbaa !14
  %16 = mul i64 %14, %15
  %17 = udiv i64 %16, 4
  %18 = trunc i64 %17 to i32
  store i32 %18, ptr %10, align 4, !tbaa !12
  %19 = load i32, ptr %6, align 4, !tbaa !12
  %20 = icmp eq i32 %19, -2
  br i1 %20, label %21, label %22

21:                                               ; preds = %3
  store i64 0, ptr %4, align 8
  store i32 1, ptr %11, align 4
  br label %70

22:                                               ; preds = %3
  store i64 0, ptr %8, align 8, !tbaa !14
  store i64 0, ptr %9, align 8, !tbaa !14
  br label %23

23:                                               ; preds = %57, %22
  %24 = load i32, ptr %6, align 4, !tbaa !12
  %25 = icmp sge i32 %24, 0
  br i1 %25, label %26, label %62

26:                                               ; preds = %23
  %27 = load i64, ptr %9, align 8, !tbaa !14
  %28 = icmp uge i64 %27, 10000
  br i1 %28, label %29, label %30

29:                                               ; preds = %26
  br label %68

30:                                               ; preds = %26
  %31 = load i32, ptr %6, align 4, !tbaa !12
  %32 = load i32, ptr %10, align 4, !tbaa !12
  %33 = icmp sge i32 %31, %32
  br i1 %33, label %34, label %35

34:                                               ; preds = %30
  br label %68

35:                                               ; preds = %30
  %36 = load i32, ptr @cdf_bo, align 4, !tbaa !8
  %37 = icmp eq i32 %36, 16909060
  br i1 %37, label %38, label %47

38:                                               ; preds = %35
  %39 = load ptr, ptr %5, align 8, !tbaa !16
  %40 = getelementptr inbounds nuw %struct.cdf_sat_t, ptr %39, i32 0, i32 0
  %41 = load ptr, ptr %40, align 8, !tbaa !55
  %42 = load i32, ptr %6, align 4, !tbaa !12
  %43 = sext i32 %42 to i64
  %44 = getelementptr inbounds i32, ptr %41, i64 %43
  %45 = load i32, ptr %44, align 4, !tbaa !12
  %46 = call i32 @_cdf_tole4(i32 noundef %45)
  br label %55

47:                                               ; preds = %35
  %48 = load ptr, ptr %5, align 8, !tbaa !16
  %49 = getelementptr inbounds nuw %struct.cdf_sat_t, ptr %48, i32 0, i32 0
  %50 = load ptr, ptr %49, align 8, !tbaa !55
  %51 = load i32, ptr %6, align 4, !tbaa !12
  %52 = sext i32 %51 to i64
  %53 = getelementptr inbounds i32, ptr %50, i64 %52
  %54 = load i32, ptr %53, align 4, !tbaa !12
  br label %55

55:                                               ; preds = %47, %38
  %56 = phi i32 [ %46, %38 ], [ %54, %47 ]
  store i32 %56, ptr %6, align 4, !tbaa !12
  br label %57

57:                                               ; preds = %55
  %58 = load i64, ptr %8, align 8, !tbaa !14
  %59 = add i64 %58, 1
  store i64 %59, ptr %8, align 8, !tbaa !14
  %60 = load i64, ptr %9, align 8, !tbaa !14
  %61 = add i64 %60, 1
  store i64 %61, ptr %9, align 8, !tbaa !14
  br label %23

62:                                               ; preds = %23
  %63 = load i64, ptr %8, align 8, !tbaa !14
  %64 = icmp eq i64 %63, 0
  br i1 %64, label %65, label %66

65:                                               ; preds = %62
  br label %68

66:                                               ; preds = %62
  %67 = load i64, ptr %8, align 8, !tbaa !14
  store i64 %67, ptr %4, align 8
  store i32 1, ptr %11, align 4
  br label %70

68:                                               ; preds = %65, %34, %29
  %69 = call ptr @__errno_location() #14
  store i32 22, ptr %69, align 4, !tbaa !12
  store i64 -1, ptr %4, align 8
  store i32 1, ptr %11, align 4
  br label %70

70:                                               ; preds = %68, %66, %21
  call void @llvm.lifetime.end.p0(i64 4, ptr %10) #13
  call void @llvm.lifetime.end.p0(i64 8, ptr %9) #13
  call void @llvm.lifetime.end.p0(i64 8, ptr %8) #13
  %71 = load i64, ptr %4, align 8
  ret i64 %71
}

; Function Attrs: nounwind uwtable
define hidden i32 @cdf_read_short_sector_chain(ptr noundef %0, ptr noundef %1, ptr noundef %2, i32 noundef %3, i64 noundef %4, ptr noundef %5) #0 {
  %7 = alloca i32, align 4
  %8 = alloca ptr, align 8
  %9 = alloca ptr, align 8
  %10 = alloca ptr, align 8
  %11 = alloca i32, align 4
  %12 = alloca i64, align 8
  %13 = alloca ptr, align 8
  %14 = alloca i64, align 8
  %15 = alloca i64, align 8
  %16 = alloca i64, align 8
  %17 = alloca i32, align 4
  store ptr %0, ptr %8, align 8, !tbaa !16
  store ptr %1, ptr %9, align 8, !tbaa !16
  store ptr %2, ptr %10, align 8, !tbaa !16
  store i32 %3, ptr %11, align 4, !tbaa !12
  store i64 %4, ptr %12, align 8, !tbaa !14
  store ptr %5, ptr %13, align 8, !tbaa !16
  call void @llvm.lifetime.start.p0(i64 8, ptr %14) #13
  %18 = load ptr, ptr %8, align 8, !tbaa !16
  %19 = getelementptr inbounds nuw %struct.cdf_header_t, ptr %18, i32 0, i32 6
  %20 = load i16, ptr %19, align 8, !tbaa !23
  %21 = zext i16 %20 to i32
  %22 = shl i32 1, %21
  %23 = sext i32 %22 to i64
  store i64 %23, ptr %14, align 8, !tbaa !14
  call void @llvm.lifetime.start.p0(i64 8, ptr %15) #13
  call void @llvm.lifetime.start.p0(i64 8, ptr %16) #13
  %24 = load ptr, ptr %13, align 8, !tbaa !16
  %25 = getelementptr inbounds nuw %struct.cdf_stream_t, ptr %24, i32 0, i32 0
  store ptr null, ptr %25, align 8, !tbaa !47
  %26 = load ptr, ptr %9, align 8, !tbaa !16
  %27 = load i32, ptr %11, align 4, !tbaa !12
  %28 = load ptr, ptr %8, align 8, !tbaa !16
  %29 = getelementptr inbounds nuw %struct.cdf_header_t, ptr %28, i32 0, i32 5
  %30 = load i16, ptr %29, align 2, !tbaa !22
  %31 = zext i16 %30 to i32
  %32 = shl i32 1, %31
  %33 = sext i32 %32 to i64
  %34 = call i64 @cdf_count_chain(ptr noundef %26, i32 noundef %27, i64 noundef %33)
  %35 = load ptr, ptr %13, align 8, !tbaa !16
  %36 = getelementptr inbounds nuw %struct.cdf_stream_t, ptr %35, i32 0, i32 1
  store i64 %34, ptr %36, align 8, !tbaa !43
  %37 = load i64, ptr %12, align 8, !tbaa !14
  %38 = load ptr, ptr %13, align 8, !tbaa !16
  %39 = getelementptr inbounds nuw %struct.cdf_stream_t, ptr %38, i32 0, i32 2
  store i64 %37, ptr %39, align 8, !tbaa !45
  %40 = load i64, ptr %14, align 8, !tbaa !14
  %41 = load ptr, ptr %13, align 8, !tbaa !16
  %42 = getelementptr inbounds nuw %struct.cdf_stream_t, ptr %41, i32 0, i32 3
  store i64 %40, ptr %42, align 8, !tbaa !46
  %43 = load ptr, ptr %13, align 8, !tbaa !16
  %44 = getelementptr inbounds nuw %struct.cdf_stream_t, ptr %43, i32 0, i32 1
  %45 = load i64, ptr %44, align 8, !tbaa !43
  %46 = icmp eq i64 %45, -1
  br i1 %46, label %47, label %48

47:                                               ; preds = %6
  br label %121

48:                                               ; preds = %6
  %49 = load ptr, ptr %13, align 8, !tbaa !16
  %50 = getelementptr inbounds nuw %struct.cdf_stream_t, ptr %49, i32 0, i32 1
  %51 = load i64, ptr %50, align 8, !tbaa !43
  %52 = load i64, ptr %14, align 8, !tbaa !14
  %53 = call noalias ptr @_ecalloc(i64 noundef %51, i64 noundef %52) #15
  %54 = load ptr, ptr %13, align 8, !tbaa !16
  %55 = getelementptr inbounds nuw %struct.cdf_stream_t, ptr %54, i32 0, i32 0
  store ptr %53, ptr %55, align 8, !tbaa !47
  %56 = load ptr, ptr %13, align 8, !tbaa !16
  %57 = getelementptr inbounds nuw %struct.cdf_stream_t, ptr %56, i32 0, i32 0
  %58 = load ptr, ptr %57, align 8, !tbaa !47
  %59 = icmp eq ptr %58, null
  br i1 %59, label %60, label %63

60:                                               ; preds = %48
  %61 = load ptr, ptr %13, align 8, !tbaa !16
  %62 = call i32 @cdf_zero_stream(ptr noundef %61)
  store i32 %62, ptr %7, align 4
  store i32 1, ptr %17, align 4
  br label %125

63:                                               ; preds = %48
  store i64 0, ptr %15, align 8, !tbaa !14
  store i64 0, ptr %16, align 8, !tbaa !14
  br label %64

64:                                               ; preds = %115, %63
  %65 = load i32, ptr %11, align 4, !tbaa !12
  %66 = icmp sge i32 %65, 0
  br i1 %66, label %67, label %120

67:                                               ; preds = %64
  %68 = load i64, ptr %16, align 8, !tbaa !14
  %69 = icmp uge i64 %68, 10000
  br i1 %69, label %70, label %71

70:                                               ; preds = %67
  br label %121

71:                                               ; preds = %67
  %72 = load i64, ptr %15, align 8, !tbaa !14
  %73 = load ptr, ptr %13, align 8, !tbaa !16
  %74 = getelementptr inbounds nuw %struct.cdf_stream_t, ptr %73, i32 0, i32 1
  %75 = load i64, ptr %74, align 8, !tbaa !43
  %76 = icmp uge i64 %72, %75
  br i1 %76, label %77, label %78

77:                                               ; preds = %71
  br label %121

78:                                               ; preds = %71
  %79 = load ptr, ptr %10, align 8, !tbaa !16
  %80 = load ptr, ptr %13, align 8, !tbaa !16
  %81 = getelementptr inbounds nuw %struct.cdf_stream_t, ptr %80, i32 0, i32 0
  %82 = load ptr, ptr %81, align 8, !tbaa !47
  %83 = load i64, ptr %15, align 8, !tbaa !14
  %84 = load i64, ptr %14, align 8, !tbaa !14
  %85 = mul i64 %83, %84
  %86 = load i64, ptr %14, align 8, !tbaa !14
  %87 = load ptr, ptr %8, align 8, !tbaa !16
  %88 = load i32, ptr %11, align 4, !tbaa !12
  %89 = call i64 @cdf_read_short_sector(ptr noundef %79, ptr noundef %82, i64 noundef %85, i64 noundef %86, ptr noundef %87, i32 noundef %88)
  %90 = load i64, ptr %14, align 8, !tbaa !14
  %91 = icmp ne i64 %89, %90
  br i1 %91, label %92, label %93

92:                                               ; preds = %78
  br label %121

93:                                               ; preds = %78
  %94 = load i32, ptr @cdf_bo, align 4, !tbaa !8
  %95 = icmp eq i32 %94, 16909060
  br i1 %95, label %96, label %105

96:                                               ; preds = %93
  %97 = load ptr, ptr %9, align 8, !tbaa !16
  %98 = getelementptr inbounds nuw %struct.cdf_sat_t, ptr %97, i32 0, i32 0
  %99 = load ptr, ptr %98, align 8, !tbaa !55
  %100 = load i32, ptr %11, align 4, !tbaa !12
  %101 = sext i32 %100 to i64
  %102 = getelementptr inbounds i32, ptr %99, i64 %101
  %103 = load i32, ptr %102, align 4, !tbaa !12
  %104 = call i32 @_cdf_tole4(i32 noundef %103)
  br label %113

105:                                              ; preds = %93
  %106 = load ptr, ptr %9, align 8, !tbaa !16
  %107 = getelementptr inbounds nuw %struct.cdf_sat_t, ptr %106, i32 0, i32 0
  %108 = load ptr, ptr %107, align 8, !tbaa !55
  %109 = load i32, ptr %11, align 4, !tbaa !12
  %110 = sext i32 %109 to i64
  %111 = getelementptr inbounds i32, ptr %108, i64 %110
  %112 = load i32, ptr %111, align 4, !tbaa !12
  br label %113

113:                                              ; preds = %105, %96
  %114 = phi i32 [ %104, %96 ], [ %112, %105 ]
  store i32 %114, ptr %11, align 4, !tbaa !12
  br label %115

115:                                              ; preds = %113
  %116 = load i64, ptr %15, align 8, !tbaa !14
  %117 = add i64 %116, 1
  store i64 %117, ptr %15, align 8, !tbaa !14
  %118 = load i64, ptr %16, align 8, !tbaa !14
  %119 = add i64 %118, 1
  store i64 %119, ptr %16, align 8, !tbaa !14
  br label %64

120:                                              ; preds = %64
  store i32 0, ptr %7, align 4
  store i32 1, ptr %17, align 4
  br label %125

121:                                              ; preds = %92, %77, %70, %47
  %122 = call ptr @__errno_location() #14
  store i32 22, ptr %122, align 4, !tbaa !12
  %123 = load ptr, ptr %13, align 8, !tbaa !16
  %124 = call i32 @cdf_zero_stream(ptr noundef %123)
  store i32 %124, ptr %7, align 4
  store i32 1, ptr %17, align 4
  br label %125

125:                                              ; preds = %121, %120, %60
  call void @llvm.lifetime.end.p0(i64 8, ptr %16) #13
  call void @llvm.lifetime.end.p0(i64 8, ptr %15) #13
  call void @llvm.lifetime.end.p0(i64 8, ptr %14) #13
  %126 = load i32, ptr %7, align 4
  ret i32 %126
}