; Function Attrs: nounwind uwtable
define hidden range(i32 -1, 1) i32 @cdf_read_short_sector_chain(ptr noundef readonly captures(none) %0, ptr noundef readonly captures(none) %1, ptr noundef readonly captures(none) %2, i32 noundef %3, i64 noundef %4, ptr noundef captures(none) initializes((0, 8)) %5) local_unnamed_addr #7 {
  %7 = getelementptr inbounds nuw i8, ptr %0, i64 32
  %8 = load i16, ptr %7, align 8, !tbaa !20
  %9 = zext nneg i16 %8 to i32
  %10 = shl nuw i32 1, %9
  %11 = sext i32 %10 to i64
  store ptr null, ptr %5, align 8, !tbaa !4
  %12 = getelementptr inbounds nuw i8, ptr %0, i64 30
  %13 = load i16, ptr %12, align 2, !tbaa !19
  %14 = zext nneg i16 %13 to i32
  %15 = shl nuw i32 1, %14
  %16 = sext i32 %15 to i64
  %17 = getelementptr inbounds nuw i8, ptr %1, i64 8
  %18 = load i64, ptr %17, align 8, !tbaa !24
  %19 = mul i64 %18, %16
  %20 = lshr i64 %19, 2
  %21 = trunc i64 %20 to i32
  %22 = icmp eq i32 %3, -2
  br i1 %22, label %.loopexit45, label %.preheader.i

.preheader.i:                                     ; preds = %6
  %23 = icmp sgt i32 %3, -1
  br i1 %23, label %.lr.ph.split.i, label %cdf_count_chain.exit

.lr.ph.split.i:                                   ; preds = %.preheader.i, %25
  %.01522.i = phi i64 [ %30, %25 ], [ 0, %.preheader.i ]
  %.01720.i = phi i32 [ %29, %25 ], [ %3, %.preheader.i ]
  %24 = icmp samesign ult i64 %.01522.i, 10000
  %.not.i = icmp slt i32 %.01720.i, %21
  %or.cond.i = select i1 %24, i1 %.not.i, i1 false
  br i1 %or.cond.i, label %25, label %cdf_count_chain.exit

25:                                               ; preds = %.lr.ph.split.i
  %26 = load ptr, ptr %1, align 8, !tbaa !27
  %27 = zext nneg i32 %.01720.i to i64
  %28 = getelementptr inbounds nuw i32, ptr %26, i64 %27
  %29 = load i32, ptr %28, align 4, !tbaa !21
  %30 = add nuw nsw i64 %.01522.i, 1
  %31 = icmp sgt i32 %29, -1
  br i1 %31, label %.lr.ph.split.i, label %.loopexit45

cdf_count_chain.exit:                             ; preds = %.lr.ph.split.i, %.preheader.i
  %32 = tail call ptr @__errno_location() #22
  store i32 22, ptr %32, align 4, !tbaa !21
  %33 = getelementptr inbounds nuw i8, ptr %5, i64 8
  br label %cdf_read_short_sector.exit.thread

.loopexit45:                                      ; preds = %25, %6
  %.0.i.ph = phi i64 [ 0, %6 ], [ %30, %25 ]
  %34 = getelementptr inbounds nuw i8, ptr %5, i64 8
  store i64 %.0.i.ph, ptr %34, align 8, !tbaa !22
  %35 = getelementptr inbounds nuw i8, ptr %5, i64 16
  store i64 %4, ptr %35, align 8, !tbaa !30
  %36 = getelementptr inbounds nuw i8, ptr %5, i64 24
  store i64 %11, ptr %36, align 8, !tbaa !31
  %37 = tail call noalias ptr @_ecalloc(i64 noundef %.0.i.ph, i64 noundef %11) #23
  store ptr %37, ptr %5, align 8, !tbaa !4
  %38 = icmp eq ptr %37, null
  br i1 %38, label %41, label %.preheader

.preheader:                                       ; preds = %.loopexit45
  %39 = icmp sgt i32 %3, -1
  br i1 %39, label %.lr.ph, label %.loopexit

.lr.ph:                                           ; preds = %.preheader
  %40 = getelementptr inbounds nuw i8, ptr %2, i64 8
  br label %.lr.ph.split

41:                                               ; preds = %.loopexit45
  tail call void @llvm.memset.p0.i64(ptr noundef nonnull align 8 dereferenceable(24) %34, i8 0, i64 24, i1 false)
  br label %.loopexit.sink.split

.lr.ph.split:                                     ; preds = %.lr.ph, %cdf_read_short_sector.exit
  %.051 = phi i64 [ %69, %cdf_read_short_sector.exit ], [ 0, %.lr.ph ]
  %.03749 = phi i32 [ %68, %cdf_read_short_sector.exit ], [ %3, %.lr.ph ]
  %exitcond = icmp eq i64 %.051, 10000
  br i1 %exitcond, label %cdf_read_short_sector.exit.thread, label %42

42:                                               ; preds = %.lr.ph.split
  %43 = load i64, ptr %34, align 8, !tbaa !22
  %.not = icmp ult i64 %.051, %43
  br i1 %.not, label %44, label %cdf_read_short_sector.exit.thread

44:                                               ; preds = %42
  %45 = load ptr, ptr %5, align 8, !tbaa !4
  %46 = mul i64 %.051, %11
  %47 = load i16, ptr %7, align 8, !tbaa !20
  %48 = zext nneg i16 %47 to i32
  %49 = shl nuw i32 1, %48
  %50 = sext i32 %49 to i64
  %51 = zext nneg i32 %.03749 to i64
  %mul.i = tail call { i64, i1 } @llvm.umul.with.overflow.i64(i64 %50, i64 %51)
  %mul.ov.i = extractvalue { i64, i1 } %mul.i, 1
  br i1 %mul.ov.i, label %cdf_read_short_sector.exit.thread, label %52

52:                                               ; preds = %44
  %53 = mul nsw i64 %50, %51
  %54 = add nsw i64 %53, %11
  %55 = load i16, ptr %12, align 2, !tbaa !19
  %56 = zext nneg i16 %55 to i32
  %57 = shl nuw i32 1, %56
  %58 = sext i32 %57 to i64
  %59 = load i64, ptr %40, align 8, !tbaa !22
  %60 = mul i64 %59, %58
  %61 = icmp ugt i64 %54, %60
  br i1 %61, label %.split.us, label %cdf_read_short_sector.exit

.split.us:                                        ; preds = %52
  %62 = tail call ptr @__errno_location() #22
  store i32 22, ptr %62, align 4, !tbaa !21
  br label %cdf_read_short_sector.exit.thread

cdf_read_short_sector.exit:                       ; preds = %52
  %63 = getelementptr inbounds nuw i8, ptr %45, i64 %46
  %64 = load ptr, ptr %2, align 8, !tbaa !4
  %65 = getelementptr inbounds nuw i8, ptr %64, i64 %53
  tail call void @llvm.memcpy.p0.p0.i64(ptr noundef nonnull align 1 dereferenceable(1) %63, ptr noundef nonnull align 1 dereferenceable(1) %65, i64 %11, i1 false)
  %66 = load ptr, ptr %1, align 8, !tbaa !27
  %67 = getelementptr inbounds nuw i32, ptr %66, i64 %51
  %68 = load i32, ptr %67, align 4, !tbaa !21
  %69 = add nuw nsw i64 %.051, 1
  %70 = icmp sgt i32 %68, -1
  br i1 %70, label %.lr.ph.split, label %.loopexit

cdf_read_short_sector.exit.thread:                ; preds = %.lr.ph.split, %42, %44, %.split.us, %cdf_count_chain.exit
  %71 = phi ptr [ %33, %cdf_count_chain.exit ], [ %34, %.split.us ], [ %34, %44 ], [ %34, %42 ], [ %34, %.lr.ph.split ]
  %72 = tail call ptr @__errno_location() #22
  store i32 22, ptr %72, align 4, !tbaa !21
  tail call void @llvm.memset.p0.i64(ptr noundef nonnull align 8 dereferenceable(24) %71, i8 0, i64 24, i1 false)
  %73 = load ptr, ptr %5, align 8, !tbaa !4
  br label %.loopexit.sink.split

.loopexit.sink.split:                             ; preds = %41, %cdf_read_short_sector.exit.thread
  %.sink = phi ptr [ %73, %cdf_read_short_sector.exit.thread ], [ null, %41 ]
  tail call void @_efree(ptr noundef %.sink) #21
  store ptr null, ptr %5, align 8, !tbaa !4
  br label %.loopexit

.loopexit:                                        ; preds = %cdf_read_short_sector.exit, %.loopexit.sink.split, %.preheader
  %.036 = phi i32 [ 0, %.preheader ], [ -1, %.loopexit.sink.split ], [ 0, %cdf_read_short_sector.exit ]
  ret i32 %.036
}